(dp0
Vengine
p1
S'pdflatex'
p2
sVpackages
p3
c__builtin__
set
p4
((lp5
Vcaption
p6
aVrelsize
p7
aVbooktabs
p8
atp9
Rp10
sVfiles_with_guttermarks
p11
g4
((lp12
S'conference_poster_3.tex'
p13
aV/Users/dakotajudo/Work/git/ASA_CSSA_SSSA/literate/conference_poster_3.tex
p14
aV/Users/dakotajudo/Work/git/ASA_CSSA_SSSA/literate/./conference_poster_3.tex
p15
atp16
Rp17
sVsynctex
p18
I01
s.