(dp0
Vengine
p1
S'pdflatex'
p2
sVpackages
p3
c__builtin__
set
p4
((lp5
Vamsmath
p6
aVcaption
p7
aVgraphicx
p8
aVrelsize
p9
aVbooktabs
p10
atp11
Rp12
sVfiles_with_guttermarks
p13
g4
((lp14
V/Users/dakotajudo/Work/git/ASA_CSSA_SSSA/literate/./conference_paper_3.tex
p15
aS'conference_paper_3.tex'
p16
aV/Users/dakotajudo/Work/git/ASA_CSSA_SSSA/literate/conference_paper_3.tex
p17
atp18
Rp19
sVsynctex
p20
I01
s.