(dp0
Vengine
p1
S'pdflatex'
p2
sVpackages
p3
c__builtin__
set
p4
((lp5
VSweave
p6
aVcaption
p7
aVrelsize
p8
aVbooktabs
p9
atp10
Rp11
sVfiles_with_guttermarks
p12
g4
((lp13
V/Users/dakotajudo/Work/git/ASA_CSSA_SSSA/literate/./poster2.tex
p14
aV/Users/dakotajudo/Work/git/ASA_CSSA_SSSA/literate/poster2.tex
p15
aS'poster2.tex'
p16
atp17
Rp18
sVsynctex
p19
I01
s.